; Function Attrs: nounwind uwtable
define dso_local i32 @hostlist_cmp_first(ptr noundef readonly captures(none) %0, ptr noundef readonly captures(none) %1) #0 {
  %3 = getelementptr inbounds nuw i8, ptr %0, i64 64
  %4 = load ptr, ptr %3, align 8
  %5 = load ptr, ptr %4, align 8
  %6 = getelementptr inbounds nuw i8, ptr %1, i64 64
  %7 = load ptr, ptr %6, align 8
  %8 = load ptr, ptr %7, align 8
  %9 = tail call fastcc i32 @hostrange_cmp(ptr noundef %5, ptr noundef %8)
  ret i32 %9
}